; ModuleID = '50/997.c'
source_filename = "50/997.c"
target datalayout = "e-m:e-p270:32:32-p271:32:32-p272:64:64-i64:64-f80:128-n8:16:32:64-S128"
target triple = "x86_64-pc-linux-gnu"

@.str = private unnamed_addr constant [3 x i8] c"%d\00", align 1
@.str.1 = private unnamed_addr constant [4 x i8] c"%d\0A\00", align 1

; Function Attrs: noinline nounwind uwtable
define dso_local void @main() #0 {
  %1 = alloca i32, align 4
  %2 = alloca i32, align 4
  %3 = alloca i32, align 4
  %4 = call i32 (i8*, ...) @__isoc99_scanf(i8* getelementptr inbounds ([3 x i8], [3 x i8]* @.str, i64 0, i64 0), i32* %1)
  store i32 1, i32* %3, align 4
  br label %5

5:                                                ; preds = %20, %0
  %6 = load i32, i32* %3, align 4
  %7 = icmp slt i32 %6, 13
  br i1 %7, label %8, label %23

8:                                                ; preds = %5
  %9 = load i32, i32* %3, align 4
  %10 = call i32 @cal(i32 %9)
  store i32 %10, i32* %2, align 4
  %11 = load i32, i32* %2, align 4
  %12 = load i32, i32* %1, align 4
  %13 = add nsw i32 %11, %12
  %14 = srem i32 %13, 7
  %15 = icmp eq i32 %14, 5
  br i1 %15, label %16, label %19

16:                                               ; preds = %8
  %17 = load i32, i32* %3, align 4
  %18 = call i32 (i8*, ...) @printf(i8* getelementptr inbounds ([4 x i8], [4 x i8]* @.str.1, i64 0, i64 0), i32 %17)
  br label %19

19:                                               ; preds = %16, %8
  br label %20

20:                                               ; preds = %19
  %21 = load i32, i32* %3, align 4
  %22 = add nsw i32 %21, 1
  store i32 %22, i32* %3, align 4
  br label %5

23:                                               ; preds = %5
  ret void
}

declare dso_local i32 @__isoc99_scanf(i8*, ...) #1

; Function Attrs: noinline nounwind uwtable
define dso_local i32 @cal(i32 %0) #0 {
  %2 = alloca i32, align 4
  %3 = alloca i32, align 4
  store i32 %0, i32* %2, align 4
  store i32 0, i32* %3, align 4
  %4 = load i32, i32* %2, align 4
  %5 = icmp sgt i32 %4, 1
  br i1 %5, label %6, label %9

6:                                                ; preds = %1
  %7 = load i32, i32* %3, align 4
  %8 = add nsw i32 %7, 31
  store i32 %8, i32* %3, align 4
  br label %9

9:                                                ; preds = %6, %1
  %10 = load i32, i32* %2, align 4
  %11 = icmp sgt i32 %10, 2
  br i1 %11, label %12, label %15

12:                                               ; preds = %9
  %13 = load i32, i32* %3, align 4
  %14 = add nsw i32 %13, 28
  store i32 %14, i32* %3, align 4
  br label %15

15:                                               ; preds = %12, %9
  %16 = load i32, i32* %2, align 4
  %17 = icmp sgt i32 %16, 3
  br i1 %17, label %18, label %21

18:                                               ; preds = %15
  %19 = load i32, i32* %3, align 4
  %20 = add nsw i32 %19, 31
  store i32 %20, i32* %3, align 4
  br label %21

21:                                               ; preds = %18, %15
  %22 = load i32, i32* %2, align 4
  %23 = icmp sgt i32 %22, 4
  br i1 %23, label %24, label %27

24:                                               ; preds = %21
  %25 = load i32, i32* %3, align 4
  %26 = add nsw i32 %25, 30
  store i32 %26, i32* %3, align 4
  br label %27

27:                                               ; preds = %24, %21
  %28 = load i32, i32* %2, align 4
  %29 = icmp sgt i32 %28, 5
  br i1 %29, label %30, label %33

30:                                               ; preds = %27
  %31 = load i32, i32* %3, align 4
  %32 = add nsw i32 %31, 31
  store i32 %32, i32* %3, align 4
  br label %33

33:                                               ; preds = %30, %27
  %34 = load i32, i32* %2, align 4
  %35 = icmp sgt i32 %34, 6
  br i1 %35, label %36, label %39

36:                                               ; preds = %33
  %37 = load i32, i32* %3, align 4
  %38 = add nsw i32 %37, 30
  store i32 %38, i32* %3, align 4
  br label %39

39:                                               ; preds = %36, %33
  %40 = load i32, i32* %2, align 4
  %41 = icmp sgt i32 %40, 7
  br i1 %41, label %42, label %45

42:                                               ; preds = %39
  %43 = load i32, i32* %3, align 4
  %44 = add nsw i32 %43, 31
  store i32 %44, i32* %3, align 4
  br label %45

45:                                               ; preds = %42, %39
  %46 = load i32, i32* %2, align 4
  %47 = icmp sgt i32 %46, 8
  br i1 %47, label %48, label %51

48:                                               ; preds = %45
  %49 = load i32, i32* %3, align 4
  %50 = add nsw i32 %49, 31
  store i32 %50, i32* %3, align 4
  br label %51

51:                                               ; preds = %48, %45
  %52 = load i32, i32* %2, align 4
  %53 = icmp sgt i32 %52, 9
  br i1 %53, label %54, label %57

54:                                               ; preds = %51
  %55 = load i32, i32* %3, align 4
  %56 = add nsw i32 %55, 30
  store i32 %56, i32* %3, align 4
  br label %57

57:                                               ; preds = %54, %51
  %58 = load i32, i32* %2, align 4
  %59 = icmp sgt i32 %58, 10
  br i1 %59, label %60, label %63

60:                                               ; preds = %57
  %61 = load i32, i32* %3, align 4
  %62 = add nsw i32 %61, 31
  store i32 %62, i32* %3, align 4
  br label %63

63:                                               ; preds = %60, %57
  %64 = load i32, i32* %2, align 4
  %65 = icmp sgt i32 %64, 11
  br i1 %65, label %66, label %69

66:                                               ; preds = %63
  %67 = load i32, i32* %3, align 4
  %68 = add nsw i32 %67, 30
  store i32 %68, i32* %3, align 4
  br label %69

69:                                               ; preds = %66, %63
  %70 = load i32, i32* %3, align 4
  %71 = add nsw i32 %70, 12
  store i32 %71, i32* %3, align 4
  %72 = load i32, i32* %3, align 4
  ret i32 %72
}

declare dso_local i32 @printf(i8*, ...) #1


!llvm.module.flags = !{!0}
!llvm.ident = !{!1}

!0 = !{i32 1, !"wchar_size", i32 4}
!1 = !{!"clang version 10.0.0-4ubuntu1 "}
